target datalayout = "e-m:e-p270:32:32-p271:32:32-p272:64:64-i64:64-i128:128-f80:128-n8:16:32:64-S128"
target triple = "x86_64-unknown-linux-gnu"

%struct._GSList = type { ptr, ptr }

@.str.10 = private unnamed_addr constant [29 x i8] c"../qemu/system/device_tree.c\00", align 1
@__func__.qemu_fdt_node_path = private unnamed_addr constant [19 x i8] c"qemu_fdt_node_path\00", align 1
@.str.12 = private unnamed_addr constant [35 x i8] c"%s: abort parsing dt for %s/%s: %s\00", align 1

; Function Attrs: nounwind sspstrong uwtable
define dso_local ptr @qemu_fdt_node_path(ptr noundef %fdt, ptr noundef %name, ptr noundef %compat, ptr noundef %errp) #0 {
entry:
  %retval = alloca ptr, align 8
  %fdt.addr = alloca ptr, align 8
  %name.addr = alloca ptr, align 8
  %compat.addr = alloca ptr, align 8
  %errp.addr = alloca ptr, align 8
  %offset = alloca i32, align 4
  %len = alloca i32, align 4
  %ret = alloca i32, align 4
  %iter_name = alloca ptr, align 8
  %path_len = alloca i32, align 4
  %n = alloca i32, align 4
  %path_list = alloca ptr, align 8
  %iter = alloca ptr, align 8
  %path_array = alloca ptr, align 8
  %path = alloca ptr, align 8
  store ptr %fdt, ptr %fdt.addr, align 8
  store ptr %name, ptr %name.addr, align 8
  store ptr %compat, ptr %compat.addr, align 8
  store ptr %errp, ptr %errp.addr, align 8
  store i32 16, ptr %path_len, align 4
  store i32 0, ptr %n, align 4
  store ptr null, ptr %path_list, align 8
  %0 = load ptr, ptr %fdt.addr, align 8
  %1 = load ptr, ptr %compat.addr, align 8
  %call = call i32 @fdt_node_offset_by_compatible(ptr noundef %0, i32 noundef -1, ptr noundef %1)
  store i32 %call, ptr %offset, align 4
  br label %while.cond

while.cond:                                       ; preds = %if.end15, %entry
  %2 = load i32, ptr %offset, align 4
  %cmp = icmp sge i32 %2, 0
  br i1 %cmp, label %while.body, label %while.end17

while.body:                                       ; preds = %while.cond
  %3 = load ptr, ptr %fdt.addr, align 8
  %4 = load i32, ptr %offset, align 4
  %call1 = call ptr @fdt_get_name(ptr noundef %3, i32 noundef %4, ptr noundef %len)
  store ptr %call1, ptr %iter_name, align 8
  %5 = load ptr, ptr %iter_name, align 8
  %tobool = icmp ne ptr %5, null
  br i1 %tobool, label %if.end, label %if.then

if.then:                                          ; preds = %while.body
  %6 = load i32, ptr %len, align 4
  store i32 %6, ptr %offset, align 4
  br label %while.end17

if.end:                                           ; preds = %while.body
  %7 = load ptr, ptr %name.addr, align 8
  %tobool2 = icmp ne ptr %7, null
  br i1 %tobool2, label %lor.lhs.false, label %if.then5

lor.lhs.false:                                    ; preds = %if.end
  %8 = load ptr, ptr %iter_name, align 8
  %9 = load ptr, ptr %name.addr, align 8
  %call3 = call i32 @strcmp(ptr noundef %8, ptr noundef %9) #11
  %tobool4 = icmp ne i32 %call3, 0
  br i1 %tobool4, label %if.end15, label %if.then5

if.then5:                                         ; preds = %lor.lhs.false, %if.end
  %10 = load i32, ptr %path_len, align 4
  %conv = zext i32 %10 to i64
  %call6 = call noalias ptr @g_malloc(i64 noundef %conv) #9
  store ptr %call6, ptr %path, align 8
  br label %while.cond7

while.cond7:                                      ; preds = %while.body11, %if.then5
  %11 = load ptr, ptr %fdt.addr, align 8
  %12 = load i32, ptr %offset, align 4
  %13 = load ptr, ptr %path, align 8
  %14 = load i32, ptr %path_len, align 4
  %call8 = call i32 @fdt_get_path(ptr noundef %11, i32 noundef %12, ptr noundef %13, i32 noundef %14)
  store i32 %call8, ptr %ret, align 4
  %cmp9 = icmp eq i32 %call8, -3
  br i1 %cmp9, label %while.body11, label %while.end

while.body11:                                     ; preds = %while.cond7
  %15 = load i32, ptr %path_len, align 4
  %add = add i32 %15, 16
  store i32 %add, ptr %path_len, align 4
  %16 = load ptr, ptr %path, align 8
  %17 = load i32, ptr %path_len, align 4
  %conv12 = zext i32 %17 to i64
  %call13 = call ptr @g_realloc(ptr noundef %16, i64 noundef %conv12)
  store ptr %call13, ptr %path, align 8
  br label %while.cond7, !llvm.loop !11

while.end:                                        ; preds = %while.cond7
  %18 = load ptr, ptr %path_list, align 8
  %19 = load ptr, ptr %path, align 8
  %call14 = call ptr @g_slist_prepend(ptr noundef %18, ptr noundef %19)
  store ptr %call14, ptr %path_list, align 8
  %20 = load i32, ptr %n, align 4
  %inc = add i32 %20, 1
  store i32 %inc, ptr %n, align 4
  br label %if.end15

if.end15:                                         ; preds = %while.end, %lor.lhs.false
  %21 = load ptr, ptr %fdt.addr, align 8
  %22 = load i32, ptr %offset, align 4
  %23 = load ptr, ptr %compat.addr, align 8
  %call16 = call i32 @fdt_node_offset_by_compatible(ptr noundef %21, i32 noundef %22, ptr noundef %23)
  store i32 %call16, ptr %offset, align 4
  br label %while.cond, !llvm.loop !12

while.end17:                                      ; preds = %if.then, %while.cond
  %24 = load i32, ptr %offset, align 4
  %cmp18 = icmp slt i32 %24, 0
  br i1 %cmp18, label %land.lhs.true, label %if.end25

land.lhs.true:                                    ; preds = %while.end17
  %25 = load i32, ptr %offset, align 4
  %cmp20 = icmp ne i32 %25, -1
  br i1 %cmp20, label %if.then22, label %if.end25

if.then22:                                        ; preds = %land.lhs.true
  %26 = load ptr, ptr %errp.addr, align 8
  %27 = load ptr, ptr %name.addr, align 8
  %28 = load ptr, ptr %compat.addr, align 8
  %29 = load i32, ptr %offset, align 4
  %call23 = call ptr @fdt_strerror(i32 noundef %29)
  call void (ptr, ptr, i32, ptr, ptr, ...) @error_setg_internal(ptr noundef %26, ptr noundef @.str.10, i32 noundef 334, ptr noundef @__func__.qemu_fdt_node_path, ptr noundef @.str.12, ptr noundef @__func__.qemu_fdt_node_path, ptr noundef %27, ptr noundef %28, ptr noundef %call23)
  %30 = load ptr, ptr %path_list, align 8
  store ptr %30, ptr %iter, align 8
  br label %for.cond

for.cond:                                         ; preds = %for.inc, %if.then22
  %31 = load ptr, ptr %iter, align 8
  %tobool24 = icmp ne ptr %31, null
  br i1 %tobool24, label %for.body, label %for.end

for.body:                                         ; preds = %for.cond
  %32 = load ptr, ptr %iter, align 8
  %data = getelementptr inbounds %struct._GSList, ptr %32, i32 0, i32 0
  %33 = load ptr, ptr %data, align 8
  call void @g_free(ptr noundef %33)
  br label %for.inc

for.inc:                                          ; preds = %for.body
  %34 = load ptr, ptr %iter, align 8
  %next = getelementptr inbounds %struct._GSList, ptr %34, i32 0, i32 1
  %35 = load ptr, ptr %next, align 8
  store ptr %35, ptr %iter, align 8
  br label %for.cond, !llvm.loop !13

for.end:                                          ; preds = %for.cond
  %36 = load ptr, ptr %path_list, align 8
  call void @g_slist_free(ptr noundef %36)
  store ptr null, ptr %retval, align 8
  br label %return

if.end25:                                         ; preds = %land.lhs.true, %while.end17
  %37 = load i32, ptr %n, align 4
  %add26 = add i32 %37, 1
  %conv27 = zext i32 %add26 to i64
  %call28 = call noalias ptr @g_malloc_n(i64 noundef %conv27, i64 noundef 8) #13
  store ptr %call28, ptr %path_array, align 8
  %38 = load ptr, ptr %path_array, align 8
  %39 = load i32, ptr %n, align 4
  %dec = add i32 %39, -1
  store i32 %dec, ptr %n, align 4
  %idxprom = zext i32 %39 to i64
  %arrayidx = getelementptr ptr, ptr %38, i64 %idxprom
  store ptr null, ptr %arrayidx, align 8
  %40 = load ptr, ptr %path_list, align 8
  store ptr %40, ptr %iter, align 8
  br label %for.cond29

for.cond29:                                       ; preds = %for.inc36, %if.end25
  %41 = load ptr, ptr %iter, align 8
  %tobool30 = icmp ne ptr %41, null
  br i1 %tobool30, label %for.body31, label %for.end38

for.body31:                                       ; preds = %for.cond29
  %42 = load ptr, ptr %iter, align 8
  %data32 = getelementptr inbounds %struct._GSList, ptr %42, i32 0, i32 0
  %43 = load ptr, ptr %data32, align 8
  %44 = load ptr, ptr %path_array, align 8
  %45 = load i32, ptr %n, align 4
  %dec33 = add i32 %45, -1
  store i32 %dec33, ptr %n, align 4
  %idxprom34 = zext i32 %45 to i64
  %arrayidx35 = getelementptr ptr, ptr %44, i64 %idxprom34
  store ptr %43, ptr %arrayidx35, align 8
  br label %for.inc36

for.inc36:                                        ; preds = %for.body31
  %46 = load ptr, ptr %iter, align 8
  %next37 = getelementptr inbounds %struct._GSList, ptr %46, i32 0, i32 1
  %47 = load ptr, ptr %next37, align 8
  store ptr %47, ptr %iter, align 8
  br label %for.cond29, !llvm.loop !14

for.end38:                                        ; preds = %for.cond29
  %48 = load ptr, ptr %path_list, align 8
  call void @g_slist_free(ptr noundef %48)
  %49 = load ptr, ptr %path_array, align 8
  store ptr %49, ptr %retval, align 8
  br label %return

return:                                           ; preds = %for.end38, %for.end
  %50 = load ptr, ptr %retval, align 8
  ret ptr %50
}