; Function Attrs: nounwind sspstrong uwtable
define dso_local noalias ptr @qemu_fdt_node_path(ptr noundef %fdt, ptr noundef %name, ptr noundef %compat, ptr noundef %errp) local_unnamed_addr #0 {
entry:
  %len = alloca i32, align 4
  %call = tail call i32 @fdt_node_offset_by_compatible(ptr noundef %fdt, i32 noundef -1, ptr noundef %compat) #12
  %cmp44 = icmp sgt i32 %call, -1
  br i1 %cmp44, label %while.body.lr.ph, label %while.end17

while.body.lr.ph:                                 ; preds = %entry
  %tobool2.not = icmp eq ptr %name, null
  br i1 %tobool2.not, label %while.body.us, label %while.body

while.body.us:                                    ; preds = %while.body.lr.ph, %while.end.us
  %path_list.048.us = phi ptr [ %call14.us, %while.end.us ], [ null, %while.body.lr.ph ]
  %n.047.us = phi i32 [ %inc.us, %while.end.us ], [ 0, %while.body.lr.ph ]
  %path_len.046.us = phi i32 [ %path_len.2.lcssa.us, %while.end.us ], [ 16, %while.body.lr.ph ]
  %offset.045.us = phi i32 [ %call16.us, %while.end.us ], [ %call, %while.body.lr.ph ]
  %call1.us = call ptr @fdt_get_name(ptr noundef %fdt, i32 noundef %offset.045.us, ptr noundef nonnull %len) #12
  %tobool.not.us = icmp eq ptr %call1.us, null
  br i1 %tobool.not.us, label %if.then, label %if.end.us

if.end.us:                                        ; preds = %while.body.us
  %conv.us = zext i32 %path_len.046.us to i64
  %call6.us = call noalias ptr @g_malloc(i64 noundef %conv.us) #11
  %call839.us = call i32 @fdt_get_path(ptr noundef %fdt, i32 noundef %offset.045.us, ptr noundef %call6.us, i32 noundef %path_len.046.us) #12
  %cmp940.us = icmp eq i32 %call839.us, -3
  br i1 %cmp940.us, label %while.body11.us, label %while.end.us

while.end.us:                                     ; preds = %while.body11.us, %if.end.us
  %path_len.2.lcssa.us = phi i32 [ %path_len.046.us, %if.end.us ], [ %add.us, %while.body11.us ]
  %path.0.lcssa.us = phi ptr [ %call6.us, %if.end.us ], [ %call13.us, %while.body11.us ]
  %call14.us = call ptr @g_slist_prepend(ptr noundef %path_list.048.us, ptr noundef %path.0.lcssa.us) #12
  %inc.us = add i32 %n.047.us, 1
  %call16.us = call i32 @fdt_node_offset_by_compatible(ptr noundef %fdt, i32 noundef %offset.045.us, ptr noundef %compat) #12
  %cmp.us = icmp sgt i32 %call16.us, -1
  br i1 %cmp.us, label %while.body.us, label %while.end17, !llvm.loop !11

while.body11.us:                                  ; preds = %if.end.us, %while.body11.us
  %path.042.us = phi ptr [ %call13.us, %while.body11.us ], [ %call6.us, %if.end.us ]
  %path_len.241.us = phi i32 [ %add.us, %while.body11.us ], [ %path_len.046.us, %if.end.us ]
  %add.us = add i32 %path_len.241.us, 16
  %conv12.us = zext i32 %add.us to i64
  %call13.us = call ptr @g_realloc(ptr noundef %path.042.us, i64 noundef %conv12.us) #12
  %call8.us = call i32 @fdt_get_path(ptr noundef %fdt, i32 noundef %offset.045.us, ptr noundef %call13.us, i32 noundef %add.us) #12
  %cmp9.us = icmp eq i32 %call8.us, -3
  br i1 %cmp9.us, label %while.body11.us, label %while.end.us, !llvm.loop !12

while.body:                                       ; preds = %while.body.lr.ph, %if.end15
  %path_list.048 = phi ptr [ %path_list.1, %if.end15 ], [ null, %while.body.lr.ph ]
  %n.047 = phi i32 [ %n.1, %if.end15 ], [ 0, %while.body.lr.ph ]
  %path_len.046 = phi i32 [ %path_len.1, %if.end15 ], [ 16, %while.body.lr.ph ]
  %offset.045 = phi i32 [ %call16, %if.end15 ], [ %call, %while.body.lr.ph ]
  %call1 = call ptr @fdt_get_name(ptr noundef %fdt, i32 noundef %offset.045, ptr noundef nonnull %len) #12
  %tobool.not = icmp eq ptr %call1, null
  br i1 %tobool.not, label %if.then, label %if.end

if.then:                                          ; preds = %while.body, %while.body.us
  %.us-phi = phi i32 [ %n.047.us, %while.body.us ], [ %n.047, %while.body ]
  %.us-phi52 = phi ptr [ %path_list.048.us, %while.body.us ], [ %path_list.048, %while.body ]
  %0 = load i32, ptr %len, align 4
  br label %while.end17

if.end:                                           ; preds = %while.body
  %call3 = call i32 @strcmp(ptr noundef nonnull dereferenceable(1) %call1, ptr noundef nonnull dereferenceable(1) %name) #14
  %tobool4.not = icmp eq i32 %call3, 0
  br i1 %tobool4.not, label %if.then5, label %if.end15

if.then5:                                         ; preds = %if.end
  %conv = zext i32 %path_len.046 to i64
  %call6 = call noalias ptr @g_malloc(i64 noundef %conv) #11
  %call839 = call i32 @fdt_get_path(ptr noundef %fdt, i32 noundef %offset.045, ptr noundef %call6, i32 noundef %path_len.046) #12
  %cmp940 = icmp eq i32 %call839, -3
  br i1 %cmp940, label %while.body11, label %while.end

while.body11:                                     ; preds = %if.then5, %while.body11
  %path.042 = phi ptr [ %call13, %while.body11 ], [ %call6, %if.then5 ]
  %path_len.241 = phi i32 [ %add, %while.body11 ], [ %path_len.046, %if.then5 ]
  %add = add i32 %path_len.241, 16
  %conv12 = zext i32 %add to i64
  %call13 = call ptr @g_realloc(ptr noundef %path.042, i64 noundef %conv12) #12
  %call8 = call i32 @fdt_get_path(ptr noundef %fdt, i32 noundef %offset.045, ptr noundef %call13, i32 noundef %add) #12
  %cmp9 = icmp eq i32 %call8, -3
  br i1 %cmp9, label %while.body11, label %while.end, !llvm.loop !12

while.end:                                        ; preds = %while.body11, %if.then5
  %path_len.2.lcssa = phi i32 [ %path_len.046, %if.then5 ], [ %add, %while.body11 ]
  %path.0.lcssa = phi ptr [ %call6, %if.then5 ], [ %call13, %while.body11 ]
  %call14 = call ptr @g_slist_prepend(ptr noundef %path_list.048, ptr noundef %path.0.lcssa) #12
  %inc = add i32 %n.047, 1
  br label %if.end15

if.end15:                                         ; preds = %while.end, %if.end
  %path_len.1 = phi i32 [ %path_len.046, %if.end ], [ %path_len.2.lcssa, %while.end ]
  %n.1 = phi i32 [ %n.047, %if.end ], [ %inc, %while.end ]
  %path_list.1 = phi ptr [ %path_list.048, %if.end ], [ %call14, %while.end ]
  %call16 = call i32 @fdt_node_offset_by_compatible(ptr noundef %fdt, i32 noundef %offset.045, ptr noundef %compat) #12
  %cmp = icmp sgt i32 %call16, -1
  br i1 %cmp, label %while.body, label %while.end17, !llvm.loop !11

while.end17:                                      ; preds = %if.end15, %while.end.us, %entry, %if.then
  %n.037 = phi i32 [ %.us-phi, %if.then ], [ 0, %entry ], [ %inc.us, %while.end.us ], [ %n.1, %if.end15 ]
  %path_list.035 = phi ptr [ %.us-phi52, %if.then ], [ null, %entry ], [ %call14.us, %while.end.us ], [ %path_list.1, %if.end15 ]
  %offset.1 = phi i32 [ %0, %if.then ], [ %call, %entry ], [ %call16.us, %while.end.us ], [ %call16, %if.end15 ]
  %or.cond = icmp slt i32 %offset.1, -1
  br i1 %or.cond, label %if.then22, label %if.end25

if.then22:                                        ; preds = %while.end17
  %call23 = call ptr @fdt_strerror(i32 noundef %offset.1) #12
  call void (ptr, ptr, i32, ptr, ptr, ...) @error_setg_internal(ptr noundef %errp, ptr noundef nonnull @.str.10, i32 noundef 334, ptr noundef nonnull @__func__.qemu_fdt_node_path, ptr noundef nonnull @.str.12, ptr noundef nonnull @__func__.qemu_fdt_node_path, ptr noundef %name, ptr noundef %compat, ptr noundef %call23) #12
  %tobool24.not59 = icmp eq ptr %path_list.035, null
  br i1 %tobool24.not59, label %return, label %for.body

for.body:                                         ; preds = %if.then22, %for.body
  %iter.060 = phi ptr [ %2, %for.body ], [ %path_list.035, %if.then22 ]
  %1 = load ptr, ptr %iter.060, align 8
  call void @g_free(ptr noundef %1) #12
  %next = getelementptr inbounds nuw i8, ptr %iter.060, i64 8
  %2 = load ptr, ptr %next, align 8
  %tobool24.not = icmp eq ptr %2, null
  br i1 %tobool24.not, label %return, label %for.body, !llvm.loop !13

if.end25:                                         ; preds = %while.end17
  %add26 = add i32 %n.037, 1
  %conv27 = zext i32 %add26 to i64
  %call28 = call noalias ptr @g_malloc_n(i64 noundef %conv27, i64 noundef 8) #15
  %idxprom = zext i32 %n.037 to i64
  %arrayidx = getelementptr ptr, ptr %call28, i64 %idxprom
  store ptr null, ptr %arrayidx, align 8
  %tobool30.not56 = icmp eq ptr %path_list.035, null
  br i1 %tobool30.not56, label %return, label %for.body31

for.body31:                                       ; preds = %if.end25, %for.body31
  %iter.158 = phi ptr [ %4, %for.body31 ], [ %path_list.035, %if.end25 ]
  %n.2.in57 = phi i32 [ %n.2, %for.body31 ], [ %n.037, %if.end25 ]
  %n.2 = add i32 %n.2.in57, -1
  %3 = load ptr, ptr %iter.158, align 8
  %idxprom34 = zext i32 %n.2 to i64
  %arrayidx35 = getelementptr ptr, ptr %call28, i64 %idxprom34
  store ptr %3, ptr %arrayidx35, align 8
  %next37 = getelementptr inbounds nuw i8, ptr %iter.158, i64 8
  %4 = load ptr, ptr %next37, align 8
  %tobool30.not = icmp eq ptr %4, null
  br i1 %tobool30.not, label %return, label %for.body31, !llvm.loop !14

return:                                           ; preds = %for.body31, %for.body, %if.end25, %if.then22
  %retval.0 = phi ptr [ null, %if.then22 ], [ %call28, %if.end25 ], [ null, %for.body ], [ %call28, %for.body31 ]
  call void @g_slist_free(ptr noundef %path_list.035) #12
  ret ptr %retval.0
}